; Function Attrs: nounwind uwtable
define zeroext i8 @l_Lean_Option_get___at_Lean_Compiler_LCNF_toConfigOptions___spec__2(ptr noundef %0, ptr noundef readonly captures(none) %1) local_unnamed_addr #0 {
  %3 = getelementptr inbounds nuw i8, ptr %1, i64 8
  %4 = load ptr, ptr %3, align 8, !tbaa !4
  %5 = getelementptr inbounds nuw i8, ptr %1, i64 16
  %6 = load ptr, ptr %5, align 8, !tbaa !4
  %7 = tail call ptr @l_Lean_KVMap_findCore(ptr noundef %0, ptr noundef %4) #3
  %8 = ptrtoint ptr %7 to i64
  %9 = and i64 %8, 1
  %.not.i23 = icmp eq i64 %9, 0
  br i1 %.not.i23, label %13, label %10

10:                                               ; preds = %2
  %11 = lshr i64 %8, 1
  %12 = trunc i64 %11 to i32
  br label %lean_obj_tag.exit

13:                                               ; preds = %2
  %14 = getelementptr i8, ptr %7, i64 4
  %.val.i = load i32, ptr %14, align 4
  %15 = lshr i32 %.val.i, 24
  br label %lean_obj_tag.exit

lean_obj_tag.exit:                                ; preds = %10, %13
  %.0.i = phi i32 [ %12, %10 ], [ %15, %13 ]
  %16 = icmp eq i32 %.0.i, 0
  br i1 %16, label %17, label %21

17:                                               ; preds = %lean_obj_tag.exit
  %18 = ptrtoint ptr %6 to i64
  %19 = lshr i64 %18, 1
  %20 = trunc i64 %19 to i8
  br label %lean_dec.exit17

21:                                               ; preds = %lean_obj_tag.exit
  %22 = getelementptr inbounds nuw i8, ptr %7, i64 8
  %23 = load ptr, ptr %22, align 8, !tbaa !4
  %24 = ptrtoint ptr %23 to i64
  %25 = and i64 %24, 1
  %.not = icmp eq i64 %25, 0
  br i1 %.not, label %26, label %lean_inc.exit

26:                                               ; preds = %21
  %.val.i24 = load i32, ptr %23, align 4, !tbaa !8
  %27 = icmp sgt i32 %.val.i24, 0
  br i1 %27, label %28, label %30, !prof !11

28:                                               ; preds = %26
  %29 = add nuw i32 %.val.i24, 1
  store i32 %29, ptr %23, align 4, !tbaa !8
  br label %lean_inc.exit

30:                                               ; preds = %26
  %.not.i25 = icmp eq i32 %.val.i24, 0
  br i1 %.not.i25, label %lean_inc.exit, label %31

31:                                               ; preds = %30
  tail call void @lean_inc_ref_cold(ptr noundef nonnull %23) #3
  br label %lean_inc.exit

lean_inc.exit:                                    ; preds = %31, %30, %28, %21
  br i1 %.not.i23, label %32, label %lean_dec.exit18

32:                                               ; preds = %lean_inc.exit
  %33 = load i32, ptr %7, align 4, !tbaa !8
  %34 = icmp sgt i32 %33, 1
  br i1 %34, label %35, label %37, !prof !11

35:                                               ; preds = %32
  %36 = add nsw i32 %33, -1
  store i32 %36, ptr %7, align 4, !tbaa !8
  br label %lean_dec.exit18

37:                                               ; preds = %32
  %.not.i = icmp eq i32 %33, 0
  br i1 %.not.i, label %lean_dec.exit18, label %38

38:                                               ; preds = %37
  tail call void @lean_dec_ref_cold(ptr noundef nonnull %7) #3
  br label %lean_dec.exit18

lean_dec.exit18:                                  ; preds = %38, %37, %35, %lean_inc.exit
  br i1 %.not, label %lean_obj_tag.exit29, label %lean_obj_tag.exit29.thread

lean_obj_tag.exit29:                              ; preds = %lean_dec.exit18
  %39 = getelementptr i8, ptr %23, i64 4
  %.val.i28 = load i32, ptr %39, align 4
  %.mask = and i32 %.val.i28, -16777216
  %40 = icmp eq i32 %.mask, 16777216
  br i1 %40, label %44, label %52

lean_obj_tag.exit29.thread:                       ; preds = %lean_dec.exit18
  %41 = and i64 %24, 8589934590
  %42 = icmp eq i64 %41, 2
  br i1 %42, label %.thread, label %lean_dec.exit

.thread:                                          ; preds = %lean_obj_tag.exit29.thread
  %43 = getelementptr i8, ptr %23, i64 8
  %.val32 = load i8, ptr %43, align 1, !tbaa !14
  br label %lean_dec.exit17

44:                                               ; preds = %lean_obj_tag.exit29
  %45 = getelementptr i8, ptr %23, i64 8
  %.val = load i8, ptr %45, align 1, !tbaa !14
  %46 = load i32, ptr %23, align 4, !tbaa !8
  %47 = icmp sgt i32 %46, 1
  br i1 %47, label %48, label %50, !prof !11

48:                                               ; preds = %44
  %49 = add nsw i32 %46, -1
  store i32 %49, ptr %23, align 4, !tbaa !8
  br label %lean_dec.exit17

50:                                               ; preds = %44
  %.not.i19 = icmp eq i32 %46, 0
  br i1 %.not.i19, label %lean_dec.exit17, label %51

51:                                               ; preds = %50
  tail call void @lean_dec_ref_cold(ptr noundef nonnull %23) #3
  br label %lean_dec.exit17

52:                                               ; preds = %lean_obj_tag.exit29
  %53 = load i32, ptr %23, align 4, !tbaa !8
  %54 = icmp sgt i32 %53, 1
  br i1 %54, label %55, label %57, !prof !11

55:                                               ; preds = %52
  %56 = add nsw i32 %53, -1
  store i32 %56, ptr %23, align 4, !tbaa !8
  br label %lean_dec.exit

57:                                               ; preds = %52
  %.not.i21 = icmp eq i32 %53, 0
  br i1 %.not.i21, label %lean_dec.exit, label %58

58:                                               ; preds = %57
  tail call void @lean_dec_ref_cold(ptr noundef nonnull %23) #3
  br label %lean_dec.exit

lean_dec.exit:                                    ; preds = %lean_obj_tag.exit29.thread, %58, %57, %55
  %59 = ptrtoint ptr %6 to i64
  %60 = lshr i64 %59, 1
  %61 = trunc i64 %60 to i8
  br label %lean_dec.exit17

lean_dec.exit17:                                  ; preds = %.thread, %48, %50, %51, %lean_dec.exit, %17
  %.0 = phi i8 [ %20, %17 ], [ %61, %lean_dec.exit ], [ %.val, %51 ], [ %.val, %50 ], [ %.val, %48 ], [ %.val32, %.thread ]
  ret i8 %.0
}